; Function Attrs: mustprogress uwtable
define hidden noundef zeroext i1 @_ZNK3nla7emonics20monics_are_canonizedEv(ptr nocapture noundef nonnull readonly align 8 dereferenceable(216) %this) local_unnamed_addr #4 align 2 {
entry:
  %m_monics = getelementptr inbounds i8, ptr %this, i64 128
  %0 = load ptr, ptr %m_monics, align 8
  %cmp.i.i = icmp eq ptr %0, null
  br i1 %cmp.i.i, label %return, label %_ZN6vectorIN3nla5monicELb1EjE3endEv.exit

_ZN6vectorIN3nla5monicELb1EjE3endEv.exit:         ; preds = %entry
  %arrayidx.i.i = getelementptr inbounds i8, ptr %0, i64 -4
  %1 = load i32, ptr %arrayidx.i.i, align 4
  %2 = zext i32 %1 to i64
  %add.ptr.i = getelementptr inbounds %"class.nla::monic", ptr %0, i64 %2
  %cmp.not4 = icmp eq i32 %1, 0
  br i1 %cmp.not4, label %return, label %for.body

for.body:                                         ; preds = %_ZN6vectorIN3nla5monicELb1EjE3endEv.exit, %for.body
  %__begin1.05 = phi ptr [ %incdec.ptr, %for.body ], [ %0, %_ZN6vectorIN3nla5monicELb1EjE3endEv.exit ]
  %call3 = tail call noundef zeroext i1 @_ZNK3nla7emonics12is_canonizedERKNS_5monicE(ptr noundef nonnull align 8 dereferenceable(216) %this, ptr noundef nonnull align 8 dereferenceable(34) %__begin1.05)
  %incdec.ptr = getelementptr inbounds i8, ptr %__begin1.05, i64 40
  %cmp.not = icmp ne ptr %incdec.ptr, %add.ptr.i
  %or.cond.not = select i1 %call3, i1 %cmp.not, i1 false
  br i1 %or.cond.not, label %for.body, label %return

return:                                           ; preds = %for.body, %entry, %_ZN6vectorIN3nla5monicELb1EjE3endEv.exit
  %cmp.not.lcssa = phi i1 [ true, %_ZN6vectorIN3nla5monicELb1EjE3endEv.exit ], [ true, %entry ], [ %call3, %for.body ]
  ret i1 %cmp.not.lcssa
}